target datalayout = "e-m:e-p270:32:32-p271:32:32-p272:64:64-i64:64-i128:128-f80:128-n8:16:32:64-S128"
target triple = "x86_64-pc-linux-gnu"

@.str.20 = private unnamed_addr constant [5 x i8] c"HOME\00", align 1
@.str.21 = private unnamed_addr constant [4 x i8] c"%s/\00", align 1
@.str.22 = private unnamed_addr constant [8 x i8] c".abc.rc\00", align 1
@.str.23 = private unnamed_addr constant [2 x i8] c"r\00", align 1
@.str.24 = private unnamed_addr constant [2 x i8] c".\00", align 1
@.str.25 = private unnamed_addr constant [13 x i8] c"source -s %s\00", align 1
@.str.26 = private unnamed_addr constant [17 x i8] c"source -s abc.rc\00", align 1

; Function Attrs: nounwind uwtable
define void @Abc_UtilsSource(ptr noundef %0) #0 {
  %2 = alloca ptr, align 8
  %3 = alloca ptr, align 8
  %4 = alloca ptr, align 8
  %5 = alloca ptr, align 8
  %6 = alloca ptr, align 8
  %7 = alloca ptr, align 8
  %8 = alloca ptr, align 8
  %9 = alloca ptr, align 8
  store ptr %0, ptr %2, align 8, !tbaa !3
  call void @llvm.lifetime.start.p0(i64 8, ptr %3) #7
  call void @llvm.lifetime.start.p0(i64 8, ptr %4) #7
  call void @llvm.lifetime.start.p0(i64 8, ptr %5) #7
  %10 = call ptr @getenv(ptr noundef @.str.20) #7
  store ptr %10, ptr %5, align 8, !tbaa !25
  %11 = load ptr, ptr %5, align 8, !tbaa !25
  %12 = icmp ne ptr %11, null
  br i1 %12, label %13, label %30

13:                                               ; preds = %1
  call void @llvm.lifetime.start.p0(i64 8, ptr %6) #7
  %14 = load ptr, ptr %5, align 8, !tbaa !25
  %15 = call i64 @strlen(ptr noundef %14) #9
  %16 = add i64 %15, 2
  %17 = mul i64 1, %16
  %18 = call noalias ptr @malloc(i64 noundef %17) #10
  store ptr %18, ptr %6, align 8, !tbaa !25
  %19 = load ptr, ptr %6, align 8, !tbaa !25
  %20 = load ptr, ptr %5, align 8, !tbaa !25
  %21 = call i32 (ptr, ptr, ...) @sprintf(ptr noundef %19, ptr noundef @.str.21, ptr noundef %20) #7
  %22 = load ptr, ptr %6, align 8, !tbaa !25
  %23 = call ptr @Extra_UtilFileSearch(ptr noundef @.str.22, ptr noundef %22, ptr noundef @.str.23)
  store ptr %23, ptr %3, align 8, !tbaa !25
  %24 = load ptr, ptr %6, align 8, !tbaa !25
  %25 = icmp ne ptr %24, null
  br i1 %25, label %26, label %28

26:                                               ; preds = %13
  %27 = load ptr, ptr %6, align 8, !tbaa !25
  call void @free(ptr noundef %27) #7
  store ptr null, ptr %6, align 8, !tbaa !25
  br label %29

28:                                               ; preds = %13
  br label %29

29:                                               ; preds = %28, %26
  call void @llvm.lifetime.end.p0(i64 8, ptr %6) #7
  br label %31

30:                                               ; preds = %1
  store ptr null, ptr %3, align 8, !tbaa !25
  br label %31

31:                                               ; preds = %30, %29
  %32 = call ptr @Extra_UtilFileSearch(ptr noundef @.str.22, ptr noundef @.str.24, ptr noundef @.str.23)
  store ptr %32, ptr %4, align 8, !tbaa !25
  %33 = load ptr, ptr %3, align 8, !tbaa !25
  %34 = icmp ne ptr %33, null
  br i1 %34, label %35, label %56

35:                                               ; preds = %31
  %36 = load ptr, ptr %4, align 8, !tbaa !25
  %37 = icmp ne ptr %36, null
  br i1 %37, label %38, label %56

38:                                               ; preds = %35
  call void @llvm.lifetime.start.p0(i64 8, ptr %7) #7
  %39 = load ptr, ptr %3, align 8, !tbaa !25
  %40 = call i64 @strlen(ptr noundef %39) #9
  %41 = add i64 %40, 12
  %42 = mul i64 1, %41
  %43 = call noalias ptr @malloc(i64 noundef %42) #10
  store ptr %43, ptr %7, align 8, !tbaa !25
  %44 = load ptr, ptr %7, align 8, !tbaa !25
  %45 = load ptr, ptr %3, align 8, !tbaa !25
  %46 = call i32 (ptr, ptr, ...) @sprintf(ptr noundef %44, ptr noundef @.str.25, ptr noundef %45) #7
  %47 = load ptr, ptr %2, align 8, !tbaa !3
  %48 = load ptr, ptr %7, align 8, !tbaa !25
  %49 = call i32 @Cmd_CommandExecute(ptr noundef %47, ptr noundef %48)
  %50 = load ptr, ptr %7, align 8, !tbaa !25
  %51 = icmp ne ptr %50, null
  br i1 %51, label %52, label %54

52:                                               ; preds = %38
  %53 = load ptr, ptr %7, align 8, !tbaa !25
  call void @free(ptr noundef %53) #7
  store ptr null, ptr %7, align 8, !tbaa !25
  br label %55

54:                                               ; preds = %38
  br label %55

55:                                               ; preds = %54, %52
  call void @llvm.lifetime.end.p0(i64 8, ptr %7) #7
  br label %99

56:                                               ; preds = %35, %31
  %57 = load ptr, ptr %3, align 8, !tbaa !25
  %58 = icmp ne ptr %57, null
  br i1 %58, label %59, label %77

59:                                               ; preds = %56
  call void @llvm.lifetime.start.p0(i64 8, ptr %8) #7
  %60 = load ptr, ptr %3, align 8, !tbaa !25
  %61 = call i64 @strlen(ptr noundef %60) #9
  %62 = add i64 %61, 12
  %63 = mul i64 1, %62
  %64 = call noalias ptr @malloc(i64 noundef %63) #10
  store ptr %64, ptr %8, align 8, !tbaa !25
  %65 = load ptr, ptr %8, align 8, !tbaa !25
  %66 = load ptr, ptr %3, align 8, !tbaa !25
  %67 = call i32 (ptr, ptr, ...) @sprintf(ptr noundef %65, ptr noundef @.str.25, ptr noundef %66) #7
  %68 = load ptr, ptr %2, align 8, !tbaa !3
  %69 = load ptr, ptr %8, align 8, !tbaa !25
  %70 = call i32 @Cmd_CommandExecute(ptr noundef %68, ptr noundef %69)
  %71 = load ptr, ptr %8, align 8, !tbaa !25
  %72 = icmp ne ptr %71, null
  br i1 %72, label %73, label %75

73:                                               ; preds = %59
  %74 = load ptr, ptr %8, align 8, !tbaa !25
  call void @free(ptr noundef %74) #7
  store ptr null, ptr %8, align 8, !tbaa !25
  br label %76

75:                                               ; preds = %59
  br label %76

76:                                               ; preds = %75, %73
  call void @llvm.lifetime.end.p0(i64 8, ptr %8) #7
  br label %77

77:                                               ; preds = %76, %56
  %78 = load ptr, ptr %4, align 8, !tbaa !25
  %79 = icmp ne ptr %78, null
  br i1 %79, label %80, label %98

80:                                               ; preds = %77
  call void @llvm.lifetime.start.p0(i64 8, ptr %9) #7
  %81 = load ptr, ptr %4, align 8, !tbaa !25
  %82 = call i64 @strlen(ptr noundef %81) #9
  %83 = add i64 %82, 12
  %84 = mul i64 1, %83
  %85 = call noalias ptr @malloc(i64 noundef %84) #10
  store ptr %85, ptr %9, align 8, !tbaa !25
  %86 = load ptr, ptr %9, align 8, !tbaa !25
  %87 = load ptr, ptr %4, align 8, !tbaa !25
  %88 = call i32 (ptr, ptr, ...) @sprintf(ptr noundef %86, ptr noundef @.str.25, ptr noundef %87) #7
  %89 = load ptr, ptr %2, align 8, !tbaa !3
  %90 = load ptr, ptr %9, align 8, !tbaa !25
  %91 = call i32 @Cmd_CommandExecute(ptr noundef %89, ptr noundef %90)
  %92 = load ptr, ptr %9, align 8, !tbaa !25
  %93 = icmp ne ptr %92, null
  br i1 %93, label %94, label %96

94:                                               ; preds = %80
  %95 = load ptr, ptr %9, align 8, !tbaa !25
  call void @free(ptr noundef %95) #7
  store ptr null, ptr %9, align 8, !tbaa !25
  br label %97

96:                                               ; preds = %80
  br label %97

97:                                               ; preds = %96, %94
  call void @llvm.lifetime.end.p0(i64 8, ptr %9) #7
  br label %98

98:                                               ; preds = %97, %77
  br label %99

99:                                               ; preds = %98, %55
  %100 = load ptr, ptr %3, align 8, !tbaa !25
  %101 = icmp ne ptr %100, null
  br i1 %101, label %102, label %109

102:                                              ; preds = %99
  %103 = load ptr, ptr %3, align 8, !tbaa !25
  %104 = icmp ne ptr %103, null
  br i1 %104, label %105, label %107

105:                                              ; preds = %102
  %106 = load ptr, ptr %3, align 8, !tbaa !25
  call void @free(ptr noundef %106) #7
  store ptr null, ptr %3, align 8, !tbaa !25
  br label %108

107:                                              ; preds = %102
  br label %108

108:                                              ; preds = %107, %105
  br label %109

109:                                              ; preds = %108, %99
  %110 = load ptr, ptr %4, align 8, !tbaa !25
  %111 = icmp ne ptr %110, null
  br i1 %111, label %112, label %119

112:                                              ; preds = %109
  %113 = load ptr, ptr %4, align 8, !tbaa !25
  %114 = icmp ne ptr %113, null
  br i1 %114, label %115, label %117

115:                                              ; preds = %112
  %116 = load ptr, ptr %4, align 8, !tbaa !25
  call void @free(ptr noundef %116) #7
  store ptr null, ptr %4, align 8, !tbaa !25
  br label %118

117:                                              ; preds = %112
  br label %118

118:                                              ; preds = %117, %115
  br label %119

119:                                              ; preds = %118, %109
  %120 = load ptr, ptr %2, align 8, !tbaa !3
  %121 = call i32 @Cmd_CommandExecute(ptr noundef %120, ptr noundef @.str.26)
  call void @llvm.lifetime.end.p0(i64 8, ptr %5) #7
  call void @llvm.lifetime.end.p0(i64 8, ptr %4) #7
  call void @llvm.lifetime.end.p0(i64 8, ptr %3) #7
  ret void
}