; Function Attrs: nounwind uwtable
define void @Abc_UtilsSource(ptr noundef %0) local_unnamed_addr #2 {
  %2 = tail call ptr @getenv(ptr noundef nonnull @.str.20) #10
  %.not = icmp eq ptr %2, null
  br i1 %.not, label %9, label %3

3:                                                ; preds = %1
  %4 = tail call i64 @strlen(ptr noundef nonnull dereferenceable(1) %2) #12
  %5 = add i64 %4, 2
  %6 = tail call noalias ptr @malloc(i64 noundef %5) #13
  %7 = tail call i32 (ptr, ptr, ...) @sprintf(ptr noundef nonnull dereferenceable(1) %6, ptr noundef nonnull dereferenceable(1) @.str.21, ptr noundef nonnull %2) #10
  %8 = tail call ptr @Extra_UtilFileSearch(ptr noundef nonnull @.str.22, ptr noundef nonnull %6, ptr noundef nonnull @.str.23) #10
  tail call void @free(ptr noundef %6) #10
  br label %9

9:                                                ; preds = %1, %3
  %.0 = phi ptr [ %8, %3 ], [ null, %1 ]
  %10 = tail call ptr @Extra_UtilFileSearch(ptr noundef nonnull @.str.22, ptr noundef nonnull @.str.24, ptr noundef nonnull @.str.23) #10
  %11 = icmp ne ptr %.0, null
  %12 = icmp ne ptr %10, null
  %or.cond = select i1 %11, i1 %12, i1 false
  br i1 %or.cond, label %.thread, label %18

.thread:                                          ; preds = %9
  %13 = tail call i64 @strlen(ptr noundef nonnull dereferenceable(1) %.0) #12
  %14 = add i64 %13, 12
  %15 = tail call noalias ptr @malloc(i64 noundef %14) #13
  %16 = tail call i32 (ptr, ptr, ...) @sprintf(ptr noundef nonnull dereferenceable(1) %15, ptr noundef nonnull dereferenceable(1) @.str.25, ptr noundef nonnull %.0) #10
  %17 = tail call i32 @Cmd_CommandExecute(ptr noundef %0, ptr noundef nonnull %15) #10
  tail call void @free(ptr noundef %15) #10
  br label %33

18:                                               ; preds = %9
  br i1 %11, label %19, label %25

19:                                               ; preds = %18
  %20 = tail call i64 @strlen(ptr noundef nonnull dereferenceable(1) %.0) #12
  %21 = add i64 %20, 12
  %22 = tail call noalias ptr @malloc(i64 noundef %21) #13
  %23 = tail call i32 (ptr, ptr, ...) @sprintf(ptr noundef nonnull dereferenceable(1) %22, ptr noundef nonnull dereferenceable(1) @.str.25, ptr noundef nonnull %.0) #10
  %24 = tail call i32 @Cmd_CommandExecute(ptr noundef %0, ptr noundef nonnull %22) #10
  tail call void @free(ptr noundef %22) #10
  br label %25

25:                                               ; preds = %19, %18
  br i1 %12, label %26, label %32

26:                                               ; preds = %25
  %27 = tail call i64 @strlen(ptr noundef nonnull dereferenceable(1) %10) #12
  %28 = add i64 %27, 12
  %29 = tail call noalias ptr @malloc(i64 noundef %28) #13
  %30 = tail call i32 (ptr, ptr, ...) @sprintf(ptr noundef nonnull dereferenceable(1) %29, ptr noundef nonnull dereferenceable(1) @.str.25, ptr noundef nonnull %10) #10
  %31 = tail call i32 @Cmd_CommandExecute(ptr noundef %0, ptr noundef nonnull %29) #10
  tail call void @free(ptr noundef %29) #10
  br label %32

32:                                               ; preds = %25, %26
  br i1 %11, label %33, label %34

33:                                               ; preds = %.thread, %32
  tail call void @free(ptr noundef nonnull %.0) #10
  br label %34

34:                                               ; preds = %33, %32
  br i1 %12, label %35, label %36

35:                                               ; preds = %34
  tail call void @free(ptr noundef nonnull %10) #10
  br label %36

36:                                               ; preds = %35, %34
  %37 = tail call i32 @Cmd_CommandExecute(ptr noundef %0, ptr noundef nonnull @.str.26) #10
  ret void
}